target datalayout = "e-m:e-p270:32:32-p271:32:32-p272:64:64-i64:64-i128:128-f80:128-n8:16:32:64-S128"
target triple = "x86_64-unknown-linux-gnu"

; Function Attrs: nounwind sspstrong uwtable
define dso_local i32 @slow_bitmap_full(ptr noundef %bitmap, i64 noundef %bits) #0 {
entry:
  %retval = alloca i32, align 4
  %bitmap.addr = alloca ptr, align 8
  %bits.addr = alloca i64, align 8
  %k = alloca i64, align 8
  %lim = alloca i64, align 8
  store ptr %bitmap, ptr %bitmap.addr, align 8
  store i64 %bits, ptr %bits.addr, align 8
  %0 = load i64, ptr %bits.addr, align 8
  %div = udiv i64 %0, 64
  store i64 %div, ptr %lim, align 8
  store i64 0, ptr %k, align 8
  br label %for.cond

for.cond:                                         ; preds = %for.inc, %entry
  %1 = load i64, ptr %k, align 8
  %2 = load i64, ptr %lim, align 8
  %cmp = icmp slt i64 %1, %2
  br i1 %cmp, label %for.body, label %for.end

for.body:                                         ; preds = %for.cond
  %3 = load ptr, ptr %bitmap.addr, align 8
  %4 = load i64, ptr %k, align 8
  %arrayidx = getelementptr i64, ptr %3, i64 %4
  %5 = load i64, ptr %arrayidx, align 8
  %not = xor i64 %5, -1
  %tobool = icmp ne i64 %not, 0
  br i1 %tobool, label %if.then, label %if.end

if.then:                                          ; preds = %for.body
  store i32 0, ptr %retval, align 4
  br label %return

if.end:                                           ; preds = %for.body
  br label %for.inc

for.inc:                                          ; preds = %if.end
  %6 = load i64, ptr %k, align 8
  %inc = add i64 %6, 1
  store i64 %inc, ptr %k, align 8
  br label %for.cond, !llvm.loop !7

for.end:                                          ; preds = %for.cond
  %7 = load i64, ptr %bits.addr, align 8
  %rem = urem i64 %7, 64
  %tobool1 = icmp ne i64 %rem, 0
  br i1 %tobool1, label %if.then2, label %if.end9

if.then2:                                         ; preds = %for.end
  %8 = load ptr, ptr %bitmap.addr, align 8
  %9 = load i64, ptr %k, align 8
  %arrayidx3 = getelementptr i64, ptr %8, i64 %9
  %10 = load i64, ptr %arrayidx3, align 8
  %not4 = xor i64 %10, -1
  %11 = load i64, ptr %bits.addr, align 8
  %sub = sub i64 0, %11
  %and = and i64 %sub, 63
  %shr = lshr i64 -1, %and
  %and5 = and i64 %not4, %shr
  %tobool6 = icmp ne i64 %and5, 0
  br i1 %tobool6, label %if.then7, label %if.end8

if.then7:                                         ; preds = %if.then2
  store i32 0, ptr %retval, align 4
  br label %return

if.end8:                                          ; preds = %if.then2
  br label %if.end9

if.end9:                                          ; preds = %if.end8, %for.end
  store i32 1, ptr %retval, align 4
  br label %return

return:                                           ; preds = %if.end9, %if.then7, %if.then
  %12 = load i32, ptr %retval, align 4
  ret i32 %12
}