; Function Attrs: nofree norecurse nosync nounwind sspstrong memory(argmem: read) uwtable
define dso_local range(i32 0, 2) i32 @slow_bitmap_full(ptr noundef readonly captures(none) %bitmap, i64 noundef %bits) local_unnamed_addr #0 {
entry:
  %div7 = lshr i64 %bits, 6
  %cmp9.not = icmp ult i64 %bits, 64
  br i1 %cmp9.not, label %for.end, label %for.body

for.body:                                         ; preds = %entry, %for.inc
  %k.010 = phi i64 [ %inc, %for.inc ], [ 0, %entry ]
  %arrayidx = getelementptr i64, ptr %bitmap, i64 %k.010
  %0 = load i64, ptr %arrayidx, align 8
  %tobool.not = icmp eq i64 %0, -1
  br i1 %tobool.not, label %for.inc, label %return

for.inc:                                          ; preds = %for.body
  %inc = add nuw nsw i64 %k.010, 1
  %exitcond.not = icmp eq i64 %inc, %div7
  br i1 %exitcond.not, label %for.end, label %for.body, !llvm.loop !7

for.end:                                          ; preds = %for.inc, %entry
  %k.0.lcssa = phi i64 [ 0, %entry ], [ %div7, %for.inc ]
  %rem = and i64 %bits, 63
  %tobool1.not = icmp eq i64 %rem, 0
  br i1 %tobool1.not, label %if.end9, label %if.then2

if.then2:                                         ; preds = %for.end
  %arrayidx3 = getelementptr i64, ptr %bitmap, i64 %k.0.lcssa
  %1 = load i64, ptr %arrayidx3, align 8
  %not4 = xor i64 %1, -1
  %sub = sub i64 0, %bits
  %and = and i64 %sub, 63
  %shr = lshr i64 -1, %and
  %and5 = and i64 %shr, %not4
  %tobool6.not = icmp eq i64 %and5, 0
  br i1 %tobool6.not, label %if.end9, label %return

if.end9:                                          ; preds = %if.then2, %for.end
  br label %return

return:                                           ; preds = %for.body, %if.then2, %if.end9
  %retval.0 = phi i32 [ 1, %if.end9 ], [ 0, %if.then2 ], [ 0, %for.body ]
  ret i32 %retval.0
}